target datalayout = "e-m:e-p270:32:32-p271:32:32-p272:64:64-i64:64-i128:128-f80:128-n8:16:32:64-S128"
target triple = "x86_64-pc-linux-gnu"

%struct.asn1_string_st = type { i32, i32, ptr, i64 }

@.str = private unnamed_addr constant [34 x i8] c"../openssl/crypto/asn1/asn1_lib.c\00", align 1

; Function Attrs: nounwind uwtable
define void @ossl_asn1_string_embed_free(ptr noundef %0, i32 noundef %1) #0 {
  %3 = alloca ptr, align 8
  %4 = alloca i32, align 4
  store ptr %0, ptr %3, align 8, !tbaa !29
  store i32 %1, ptr %4, align 4, !tbaa !17
  %5 = load ptr, ptr %3, align 8, !tbaa !29
  %6 = icmp eq ptr %5, null
  br i1 %6, label %7, label %8

7:                                                ; preds = %2
  br label %23

8:                                                ; preds = %2
  %9 = load ptr, ptr %3, align 8, !tbaa !29
  %10 = getelementptr inbounds nuw %struct.asn1_string_st, ptr %9, i32 0, i32 3
  %11 = load i64, ptr %10, align 8, !tbaa !31
  %12 = and i64 %11, 16
  %13 = icmp ne i64 %12, 0
  br i1 %13, label %18, label %14

14:                                               ; preds = %8
  %15 = load ptr, ptr %3, align 8, !tbaa !29
  %16 = getelementptr inbounds nuw %struct.asn1_string_st, ptr %15, i32 0, i32 2
  %17 = load ptr, ptr %16, align 8, !tbaa !34
  call void @CRYPTO_free(ptr noundef %17, ptr noundef @.str, i32 noundef 367)
  br label %18

18:                                               ; preds = %14, %8
  %19 = load i32, ptr %4, align 4, !tbaa !17
  %20 = icmp eq i32 %19, 0
  br i1 %20, label %21, label %23

21:                                               ; preds = %18
  %22 = load ptr, ptr %3, align 8, !tbaa !29
  call void @CRYPTO_free(ptr noundef %22, ptr noundef @.str, i32 noundef 369)
  br label %23

23:                                               ; preds = %7, %21, %18
  ret void
}

; Function Attrs: nounwind uwtable
define void @ASN1_STRING_free(ptr noundef %0) #0 {
  %2 = alloca ptr, align 8
  store ptr %0, ptr %2, align 8, !tbaa !29
  %3 = load ptr, ptr %2, align 8, !tbaa !29
  %4 = icmp eq ptr %3, null
  br i1 %4, label %5, label %6

5:                                                ; preds = %1
  br label %13

6:                                                ; preds = %1
  %7 = load ptr, ptr %2, align 8, !tbaa !29
  %8 = load ptr, ptr %2, align 8, !tbaa !29
  %9 = getelementptr inbounds nuw %struct.asn1_string_st, ptr %8, i32 0, i32 3
  %10 = load i64, ptr %9, align 8, !tbaa !31
  %11 = and i64 %10, 128
  %12 = trunc i64 %11 to i32
  call void @ossl_asn1_string_embed_free(ptr noundef %7, i32 noundef %12)
  br label %13

13:                                               ; preds = %6, %5
  ret void
}

; Function Attrs: nounwind uwtable
define void @ASN1_STRING_clear_free(ptr noundef %0) #0 {
  %2 = alloca ptr, align 8
  store ptr %0, ptr %2, align 8, !tbaa !29
  %3 = load ptr, ptr %2, align 8, !tbaa !29
  %4 = icmp eq ptr %3, null
  br i1 %4, label %5, label %6

5:                                                ; preds = %1
  br label %27

6:                                                ; preds = %1
  %7 = load ptr, ptr %2, align 8, !tbaa !29
  %8 = getelementptr inbounds nuw %struct.asn1_string_st, ptr %7, i32 0, i32 2
  %9 = load ptr, ptr %8, align 8, !tbaa !34
  %10 = icmp ne ptr %9, null
  br i1 %10, label %11, label %25

11:                                               ; preds = %6
  %12 = load ptr, ptr %2, align 8, !tbaa !29
  %13 = getelementptr inbounds nuw %struct.asn1_string_st, ptr %12, i32 0, i32 3
  %14 = load i64, ptr %13, align 8, !tbaa !31
  %15 = and i64 %14, 16
  %16 = icmp ne i64 %15, 0
  br i1 %16, label %25, label %17

17:                                               ; preds = %11
  %18 = load ptr, ptr %2, align 8, !tbaa !29
  %19 = getelementptr inbounds nuw %struct.asn1_string_st, ptr %18, i32 0, i32 2
  %20 = load ptr, ptr %19, align 8, !tbaa !34
  %21 = load ptr, ptr %2, align 8, !tbaa !29
  %22 = getelementptr inbounds nuw %struct.asn1_string_st, ptr %21, i32 0, i32 0
  %23 = load i32, ptr %22, align 8, !tbaa !35
  %24 = sext i32 %23 to i64
  call void @OPENSSL_cleanse(ptr noundef %20, i64 noundef %24)
  br label %25

25:                                               ; preds = %17, %11, %6
  %26 = load ptr, ptr %2, align 8, !tbaa !29
  call void @ASN1_STRING_free(ptr noundef %26)
  br label %27

27:                                               ; preds = %25, %5
  ret void
}