; Function Attrs: nounwind uwtable
define void @ASN1_STRING_clear_free(ptr noundef %0) local_unnamed_addr #1 {
  %2 = icmp eq ptr %0, null
  br i1 %2, label %ASN1_STRING_free.exit, label %3

3:                                                ; preds = %1
  %4 = getelementptr inbounds nuw i8, ptr %0, i64 8
  %5 = load ptr, ptr %4, align 8, !tbaa !25
  %.not = icmp eq ptr %5, null
  br i1 %.not, label %13, label %6

6:                                                ; preds = %3
  %7 = getelementptr inbounds nuw i8, ptr %0, i64 16
  %8 = load i64, ptr %7, align 8, !tbaa !22
  %9 = and i64 %8, 16
  %.not7 = icmp eq i64 %9, 0
  br i1 %.not7, label %10, label %13

10:                                               ; preds = %6
  %11 = load i32, ptr %0, align 8, !tbaa !26
  %12 = sext i32 %11 to i64
  tail call void @OPENSSL_cleanse(ptr noundef nonnull %5, i64 noundef %12) #13
  br label %13

13:                                               ; preds = %3, %6, %10
  %14 = getelementptr inbounds nuw i8, ptr %0, i64 16
  %15 = load i64, ptr %14, align 8, !tbaa !22
  %16 = and i64 %15, 16
  %.not.i.i = icmp eq i64 %16, 0
  br i1 %.not.i.i, label %17, label %19

17:                                               ; preds = %13
  %18 = load ptr, ptr %4, align 8, !tbaa !25
  tail call void @CRYPTO_free(ptr noundef %18, ptr noundef nonnull @.str, i32 noundef 367) #13
  br label %19

19:                                               ; preds = %17, %13
  %20 = and i64 %15, 128
  %21 = icmp eq i64 %20, 0
  br i1 %21, label %22, label %ASN1_STRING_free.exit

22:                                               ; preds = %19
  tail call void @CRYPTO_free(ptr noundef nonnull %0, ptr noundef nonnull @.str, i32 noundef 369) #13
  br label %ASN1_STRING_free.exit

ASN1_STRING_free.exit:                            ; preds = %22, %19, %1
  ret void
}